target datalayout = "e-m:e-p270:32:32-p271:32:32-p272:64:64-i64:64-i128:128-f80:128-n8:16:32:64-S128"
target triple = "x86_64-pc-linux-gnu"

%struct.cpool = type { %struct.Curl_hash, i64, i64, i64, %struct.curltime, %struct.Curl_llist, ptr, ptr, ptr, ptr, i8 }
%struct.Curl_hash = type { ptr, ptr, ptr, ptr, i64, i64 }
%struct.curltime = type { i64, i32 }
%struct.Curl_llist = type { ptr, ptr, ptr, i64 }
%struct.Curl_llist_node = type { ptr, ptr, ptr, ptr }
%struct.easy_pollset = type { [5 x i32], i32, [5 x i8] }
%struct.ssl_primary_config = type { ptr, ptr, ptr, ptr, ptr, ptr, ptr, ptr, ptr, ptr, ptr, ptr, i8, i32, i8, i8 }
%struct.dynbuf = type { ptr, i64, i64, i64 }
%struct.ip_quadruple = type { [46 x i8], [46 x i8], i32, i32 }
%struct.Curl_share = type { i32, i32, i32, ptr, ptr, ptr, %struct.cpool, %struct.Curl_hash, ptr, ptr, ptr, i64, i64 }
%struct.Curl_multi = type { i32, i32, i32, %struct.Curl_llist, %struct.Curl_llist, %struct.Curl_llist, %struct.Curl_llist, i64, ptr, ptr, ptr, ptr, %struct.Curl_hash, ptr, ptr, i64, ptr, i64, ptr, i64, %struct.Curl_hash, %struct.Curl_hash, %struct.cpool, i64, i64, i64, ptr, ptr, i64, %struct.curltime, [2 x i32], i32, i32, i8, i8 }
%struct.connectdata = type { %struct.Curl_llist_node, ptr, ptr, i64, ptr, i64, ptr, ptr, %struct.hostname, ptr, ptr, %struct.hostname, %struct.proxy_info, %struct.proxy_info, %struct.ip_quadruple, %struct.ip_quadruple, ptr, ptr, ptr, ptr, ptr, %struct.curltime, %struct.curltime, %struct.curltime, [2 x i32], [2 x ptr], [2 x ptr], [2 x ptr], %struct.anon, %struct.easy_pollset, %struct.ssl_primary_config, %struct.ssl_primary_config, %struct.ConnectBits, ptr, ptr, %struct.curltime, i32, i32, %struct.Curl_llist, i32, i32, %struct.ntlmdata, %struct.ntlmdata, %union.anon.1, ptr, i16, i32, i32, i32, i32, i16, i16, i8, i8, i8, i8, i8, i8, i8 }
%struct.hostname = type { ptr, ptr, ptr, ptr }
%struct.proxy_info = type { %struct.hostname, i32, i8, ptr, ptr }
%struct.anon = type { [2 x %struct.curltime], i32 }
%struct.ConnectBits = type { i64 }
%struct.ntlmdata = type { i32, [8 x i8], i32, ptr }
%union.anon.1 = type { %struct.ftp_conn }
%struct.ftp_conn = type { %struct.pingpong, ptr, ptr, ptr, ptr, ptr, ptr, ptr, i8, i64, ptr, i64, i32, i32, i32, i32, i32, i16, i8, i8, i8, i8, i8 }
%struct.pingpong = type { i64, i8, ptr, i64, i64, %struct.curltime, i64, %struct.dynbuf, %struct.dynbuf, i64, i64, ptr, ptr }

; Function Attrs: nounwind uwtable
define internal i32 @cpool_update_shutdown_ev(ptr noundef %0, ptr noundef %1, ptr noundef %2) #0 {
  %4 = alloca ptr, align 8
  %5 = alloca ptr, align 8
  %6 = alloca ptr, align 8
  %7 = alloca %struct.easy_pollset, align 4
  %8 = alloca i32, align 4
  store ptr %0, ptr %4, align 8, !tbaa !10
  store ptr %1, ptr %5, align 8, !tbaa !97
  store ptr %2, ptr %6, align 8, !tbaa !93
  call void @llvm.lifetime.start.p0(i64 32, ptr %7) #6
  call void @llvm.lifetime.start.p0(i64 4, ptr %8) #6
  br label %9

9:                                                ; preds = %3
  br label %10

10:                                               ; preds = %9
  br label %11

11:                                               ; preds = %10
  br label %12

12:                                               ; preds = %11
  br label %13

13:                                               ; preds = %12
  br label %14

14:                                               ; preds = %13
  br label %15

15:                                               ; preds = %14
  br label %16

16:                                               ; preds = %15
  br label %17

17:                                               ; preds = %16
  call void @llvm.memset.p0.i64(ptr align 4 %7, i8 0, i64 32, i1 false)
  %18 = load ptr, ptr %5, align 8, !tbaa !97
  %19 = load ptr, ptr %6, align 8, !tbaa !93
  call void @Curl_attach_connection(ptr noundef %18, ptr noundef %19)
  %20 = load ptr, ptr %5, align 8, !tbaa !97
  call void @Curl_conn_adjust_pollset(ptr noundef %20, ptr noundef %7)
  %21 = load ptr, ptr %5, align 8, !tbaa !97
  call void @Curl_detach_connection(ptr noundef %21)
  %22 = load ptr, ptr %4, align 8, !tbaa !10
  %23 = load ptr, ptr %5, align 8, !tbaa !97
  %24 = load ptr, ptr %6, align 8, !tbaa !93
  %25 = getelementptr inbounds nuw %struct.connectdata, ptr %24, i32 0, i32 29
  %26 = call i32 @Curl_multi_pollset_ev(ptr noundef %22, ptr noundef %23, ptr noundef %7, ptr noundef %25)
  store i32 %26, ptr %8, align 4, !tbaa !90
  %27 = load i32, ptr %8, align 4, !tbaa !90
  %28 = icmp ne i32 %27, 0
  br i1 %28, label %32, label %29

29:                                               ; preds = %17
  %30 = load ptr, ptr %6, align 8, !tbaa !93
  %31 = getelementptr inbounds nuw %struct.connectdata, ptr %30, i32 0, i32 29
  call void @llvm.memcpy.p0.p0.i64(ptr align 8 %31, ptr align 4 %7, i64 32, i1 false)
  br label %32

32:                                               ; preds = %29, %17
  %33 = load i32, ptr %8, align 4, !tbaa !90
  call void @llvm.lifetime.end.p0(i64 4, ptr %8) #6
  call void @llvm.lifetime.end.p0(i64 32, ptr %7) #6
  ret i32 %33
}

; Function Attrs: nounwind uwtable
define dso_local void @Curl_cpool_multi_socket(ptr noundef %0, i32 noundef %1, i32 noundef %2) #0 {
  %4 = alloca ptr, align 8
  %5 = alloca i32, align 4
  %6 = alloca i32, align 4
  %7 = alloca ptr, align 8
  %8 = alloca ptr, align 8
  %9 = alloca ptr, align 8
  %10 = alloca ptr, align 8
  %11 = alloca i8, align 1
  store ptr %0, ptr %4, align 8, !tbaa !10
  store i32 %1, ptr %5, align 4, !tbaa !90
  store i32 %2, ptr %6, align 4, !tbaa !90
  call void @llvm.lifetime.start.p0(i64 8, ptr %7) #6
  %12 = load ptr, ptr %4, align 8, !tbaa !10
  %13 = getelementptr inbounds nuw %struct.Curl_multi, ptr %12, i32 0, i32 22
  store ptr %13, ptr %7, align 8, !tbaa !4
  call void @llvm.lifetime.start.p0(i64 8, ptr %8) #6
  %14 = load ptr, ptr %7, align 8, !tbaa !4
  %15 = getelementptr inbounds nuw %struct.cpool, ptr %14, i32 0, i32 6
  %16 = load ptr, ptr %15, align 8, !tbaa !16
  store ptr %16, ptr %8, align 8, !tbaa !97
  call void @llvm.lifetime.start.p0(i64 8, ptr %9) #6
  call void @llvm.lifetime.start.p0(i64 8, ptr %10) #6
  call void @llvm.lifetime.start.p0(i64 1, ptr %11) #6
  br label %17

17:                                               ; preds = %3
  br label %18

18:                                               ; preds = %17
  br label %19

19:                                               ; preds = %18
  br label %20

20:                                               ; preds = %19
  %21 = load ptr, ptr %7, align 8, !tbaa !4
  %22 = icmp ne ptr %21, null
  br i1 %22, label %23, label %50

23:                                               ; preds = %20
  %24 = load ptr, ptr %7, align 8, !tbaa !4
  %25 = getelementptr inbounds nuw %struct.cpool, ptr %24, i32 0, i32 8
  %26 = load ptr, ptr %25, align 8, !tbaa !88
  %27 = icmp ne ptr %26, null
  br i1 %27, label %28, label %41

28:                                               ; preds = %23
  %29 = load ptr, ptr %7, align 8, !tbaa !4
  %30 = getelementptr inbounds nuw %struct.cpool, ptr %29, i32 0, i32 8
  %31 = load ptr, ptr %30, align 8, !tbaa !88
  %32 = getelementptr inbounds nuw %struct.Curl_share, ptr %31, i32 0, i32 1
  %33 = load i32, ptr %32, align 4, !tbaa !91
  %34 = and i32 %33, 32
  %35 = icmp ne i32 %34, 0
  br i1 %35, label %36, label %41

36:                                               ; preds = %28
  %37 = load ptr, ptr %7, align 8, !tbaa !4
  %38 = getelementptr inbounds nuw %struct.cpool, ptr %37, i32 0, i32 6
  %39 = load ptr, ptr %38, align 8, !tbaa !16
  %40 = call i32 @Curl_share_lock(ptr noundef %39, i32 noundef 5, i32 noundef 2)
  br label %41

41:                                               ; preds = %36, %28, %23
  br label %42

42:                                               ; preds = %41
  br label %43

43:                                               ; preds = %42
  br label %44

44:                                               ; preds = %43
  %45 = load ptr, ptr %7, align 8, !tbaa !4
  %46 = getelementptr inbounds nuw %struct.cpool, ptr %45, i32 0, i32 10
  %47 = load i8, ptr %46, align 8
  %48 = and i8 %47, -2
  %49 = or i8 %48, 1
  store i8 %49, ptr %46, align 8
  br label %50

50:                                               ; preds = %44, %20
  br label %51

51:                                               ; preds = %50
  br label %52

52:                                               ; preds = %51
  %53 = load ptr, ptr %7, align 8, !tbaa !4
  %54 = getelementptr inbounds nuw %struct.cpool, ptr %53, i32 0, i32 5
  %55 = call ptr @Curl_llist_head(ptr noundef %54)
  store ptr %55, ptr %9, align 8, !tbaa !123
  br label %56

56:                                               ; preds = %97, %52
  %57 = load ptr, ptr %9, align 8, !tbaa !123
  %58 = icmp ne ptr %57, null
  br i1 %58, label %59, label %100

59:                                               ; preds = %56
  %60 = load ptr, ptr %9, align 8, !tbaa !123
  %61 = call ptr @Curl_node_elem(ptr noundef %60)
  store ptr %61, ptr %10, align 8, !tbaa !93
  %62 = load i32, ptr %5, align 4, !tbaa !90
  %63 = load ptr, ptr %10, align 8, !tbaa !93
  %64 = getelementptr inbounds nuw %struct.connectdata, ptr %63, i32 0, i32 24
  %65 = getelementptr inbounds [2 x i32], ptr %64, i64 0, i64 0
  %66 = load i32, ptr %65, align 8, !tbaa !90
  %67 = icmp eq i32 %62, %66
  br i1 %67, label %75, label %68

68:                                               ; preds = %59
  %69 = load i32, ptr %5, align 4, !tbaa !90
  %70 = load ptr, ptr %10, align 8, !tbaa !93
  %71 = getelementptr inbounds nuw %struct.connectdata, ptr %70, i32 0, i32 24
  %72 = getelementptr inbounds [2 x i32], ptr %71, i64 0, i64 1
  %73 = load i32, ptr %72, align 4, !tbaa !90
  %74 = icmp eq i32 %69, %73
  br i1 %74, label %75, label %97

75:                                               ; preds = %68, %59
  %76 = load ptr, ptr %8, align 8, !tbaa !97
  %77 = load ptr, ptr %10, align 8, !tbaa !93
  call void @Curl_attach_connection(ptr noundef %76, ptr noundef %77)
  %78 = load ptr, ptr %8, align 8, !tbaa !97
  %79 = load ptr, ptr %10, align 8, !tbaa !93
  call void @cpool_run_conn_shutdown(ptr noundef %78, ptr noundef %79, ptr noundef %11)
  br label %80

80:                                               ; preds = %75
  br label %81

81:                                               ; preds = %80
  br label %82

82:                                               ; preds = %81
  %83 = load ptr, ptr %8, align 8, !tbaa !97
  call void @Curl_detach_connection(ptr noundef %83)
  %84 = load i8, ptr %11, align 1, !tbaa !125, !range !127, !noundef !128
  %85 = trunc i8 %84 to i1
  br i1 %85, label %92, label %86

86:                                               ; preds = %82
  %87 = load ptr, ptr %4, align 8, !tbaa !10
  %88 = load ptr, ptr %8, align 8, !tbaa !97
  %89 = load ptr, ptr %10, align 8, !tbaa !93
  %90 = call i32 @cpool_update_shutdown_ev(ptr noundef %87, ptr noundef %88, ptr noundef %89)
  %91 = icmp ne i32 %90, 0
  br i1 %91, label %92, label %96

92:                                               ; preds = %86, %82
  %93 = load ptr, ptr %9, align 8, !tbaa !123
  call void @Curl_node_remove(ptr noundef %93)
  %94 = load ptr, ptr %7, align 8, !tbaa !4
  %95 = load ptr, ptr %10, align 8, !tbaa !93
  call void @cpool_close_and_destroy(ptr noundef %94, ptr noundef %95, ptr noundef null, i1 noundef zeroext false)
  br label %96

96:                                               ; preds = %92, %86
  br label %100

97:                                               ; preds = %68
  %98 = load ptr, ptr %9, align 8, !tbaa !123
  %99 = call ptr @Curl_node_next(ptr noundef %98)
  store ptr %99, ptr %9, align 8, !tbaa !123
  br label %56, !llvm.loop !161

100:                                              ; preds = %96, %56
  br label %101

101:                                              ; preds = %100
  %102 = load ptr, ptr %7, align 8, !tbaa !4
  %103 = icmp ne ptr %102, null
  br i1 %103, label %104, label %131

104:                                              ; preds = %101
  br label %105

105:                                              ; preds = %104
  br label %106

106:                                              ; preds = %105
  br label %107

107:                                              ; preds = %106
  %108 = load ptr, ptr %7, align 8, !tbaa !4
  %109 = getelementptr inbounds nuw %struct.cpool, ptr %108, i32 0, i32 10
  %110 = load i8, ptr %109, align 8
  %111 = and i8 %110, -2
  %112 = or i8 %111, 0
  store i8 %112, ptr %109, align 8
  %113 = load ptr, ptr %7, align 8, !tbaa !4
  %114 = getelementptr inbounds nuw %struct.cpool, ptr %113, i32 0, i32 8
  %115 = load ptr, ptr %114, align 8, !tbaa !88
  %116 = icmp ne ptr %115, null
  br i1 %116, label %117, label %130

117:                                              ; preds = %107
  %118 = load ptr, ptr %7, align 8, !tbaa !4
  %119 = getelementptr inbounds nuw %struct.cpool, ptr %118, i32 0, i32 8
  %120 = load ptr, ptr %119, align 8, !tbaa !88
  %121 = getelementptr inbounds nuw %struct.Curl_share, ptr %120, i32 0, i32 1
  %122 = load i32, ptr %121, align 4, !tbaa !91
  %123 = and i32 %122, 32
  %124 = icmp ne i32 %123, 0
  br i1 %124, label %125, label %130

125:                                              ; preds = %117
  %126 = load ptr, ptr %7, align 8, !tbaa !4
  %127 = getelementptr inbounds nuw %struct.cpool, ptr %126, i32 0, i32 6
  %128 = load ptr, ptr %127, align 8, !tbaa !16
  %129 = call i32 @Curl_share_unlock(ptr noundef %128, i32 noundef 5)
  br label %130

130:                                              ; preds = %125, %117, %107
  br label %131

131:                                              ; preds = %130, %101
  br label %132

132:                                              ; preds = %131
  br label %133

133:                                              ; preds = %132
  call void @llvm.lifetime.end.p0(i64 1, ptr %11) #6
  call void @llvm.lifetime.end.p0(i64 8, ptr %10) #6
  call void @llvm.lifetime.end.p0(i64 8, ptr %9) #6
  call void @llvm.lifetime.end.p0(i64 8, ptr %8) #6
  call void @llvm.lifetime.end.p0(i64 8, ptr %7) #6
  ret void
}